; Function Attrs: nounwind uwtable
define internal i32 @bitpacked_decode(ptr noundef %0, ptr noundef %1, ptr noundef writeonly captures(none) %2, ptr noundef %3) #1 {
  %5 = getelementptr inbounds nuw i8, ptr %0, i64 32
  %6 = load ptr, ptr %5, align 8, !tbaa !4
  %7 = getelementptr inbounds nuw i8, ptr %3, i64 32
  %8 = load i32, ptr %7, align 8, !tbaa !34
  %9 = load ptr, ptr %6, align 8, !tbaa !32
  %10 = tail call i32 %9(ptr noundef %0, ptr noundef %1, ptr noundef %3) #3
  %.not = icmp eq i32 %10, 0
  br i1 %.not, label %11, label %12

11:                                               ; preds = %4
  store i32 1, ptr %2, align 4, !tbaa !36
  br label %12

12:                                               ; preds = %4, %11
  %.0 = phi i32 [ %8, %11 ], [ %10, %4 ]
  ret i32 %.0
}